target datalayout = "e-m:e-p270:32:32-p271:32:32-p272:64:64-i64:64-i128:128-f80:128-n8:16:32:64-S128"
target triple = "x86_64-pc-linux-gnu"

%struct.FFEBUR128State = type { i32, i32, i64, ptr }
%struct.FFEBUR128StateInternal = type { ptr, i64, i64, i64, ptr, i64, [5 x double], [5 x double], [5 x [5 x double]], ptr, ptr, i64, ptr, i64, ptr }

@histogram_energies = internal global [1000 x double] zeroinitializer, align 16

; Function Attrs: nounwind uwtable
define internal double @ebur128_energy_to_loudness(double noundef %0) #0 {
  %2 = alloca double, align 8
  store double %0, ptr %2, align 8, !tbaa !38
  %3 = load double, ptr %2, align 8, !tbaa !38
  %4 = call nsz double @llvm.log10.f64(double %3)
  %5 = call nsz double @llvm.fmuladd.f64(double 1.000000e+01, double %4, double -6.910000e-01)
  ret double %5
}

; Function Attrs: nounwind uwtable
define internal i32 @ebur128_calc_relative_threshold(ptr noundef %0, i64 noundef %1, ptr noundef %2) #0 {
  %4 = alloca ptr, align 8
  %5 = alloca i64, align 8
  %6 = alloca ptr, align 8
  %7 = alloca i64, align 8
  %8 = alloca i64, align 8
  %9 = alloca i32, align 4
  %10 = alloca ptr, align 8
  store ptr %0, ptr %4, align 8, !tbaa !44
  store i64 %1, ptr %5, align 8, !tbaa !8
  store ptr %2, ptr %6, align 8, !tbaa !46
  call void @llvm.lifetime.start.p0(i64 8, ptr %7) #7
  call void @llvm.lifetime.start.p0(i64 8, ptr %8) #7
  call void @llvm.lifetime.start.p0(i64 4, ptr %9) #7
  store i32 0, ptr %9, align 4, !tbaa !4
  %11 = load ptr, ptr %6, align 8, !tbaa !46
  store double 0.000000e+00, ptr %11, align 8, !tbaa !38
  store i64 0, ptr %7, align 8, !tbaa !8
  br label %12

12:                                               ; preds = %52, %3
  %13 = load i64, ptr %7, align 8, !tbaa !8
  %14 = load i64, ptr %5, align 8, !tbaa !8
  %15 = icmp ult i64 %13, %14
  br i1 %15, label %16, label %55

16:                                               ; preds = %12
  call void @llvm.lifetime.start.p0(i64 8, ptr %10) #7
  %17 = load ptr, ptr %4, align 8, !tbaa !44
  %18 = load i64, ptr %7, align 8, !tbaa !8
  %19 = getelementptr inbounds nuw ptr, ptr %17, i64 %18
  %20 = load ptr, ptr %19, align 8, !tbaa !10
  %21 = getelementptr inbounds nuw %struct.FFEBUR128State, ptr %20, i32 0, i32 3
  %22 = load ptr, ptr %21, align 8, !tbaa !13
  %23 = getelementptr inbounds nuw %struct.FFEBUR128StateInternal, ptr %22, i32 0, i32 9
  %24 = load ptr, ptr %23, align 8, !tbaa !29
  store ptr %24, ptr %10, align 8, !tbaa !51
  store i64 0, ptr %8, align 8, !tbaa !8
  br label %25

25:                                               ; preds = %48, %16
  %26 = load i64, ptr %8, align 8, !tbaa !8
  %27 = icmp ult i64 %26, 1000
  br i1 %27, label %28, label %51

28:                                               ; preds = %25
  %29 = load ptr, ptr %10, align 8, !tbaa !51
  %30 = load i64, ptr %8, align 8, !tbaa !8
  %31 = getelementptr inbounds nuw i64, ptr %29, i64 %30
  %32 = load i64, ptr %31, align 8, !tbaa !8
  %33 = uitofp i64 %32 to double
  %34 = load i64, ptr %8, align 8, !tbaa !8
  %35 = getelementptr inbounds nuw [1000 x double], ptr @histogram_energies, i64 0, i64 %34
  %36 = load double, ptr %35, align 8, !tbaa !38
  %37 = load ptr, ptr %6, align 8, !tbaa !46
  %38 = load double, ptr %37, align 8, !tbaa !38
  %39 = call nsz double @llvm.fmuladd.f64(double %33, double %36, double %38)
  store double %39, ptr %37, align 8, !tbaa !38
  %40 = load ptr, ptr %10, align 8, !tbaa !51
  %41 = load i64, ptr %8, align 8, !tbaa !8
  %42 = getelementptr inbounds nuw i64, ptr %40, i64 %41
  %43 = load i64, ptr %42, align 8, !tbaa !8
  %44 = load i32, ptr %9, align 4, !tbaa !4
  %45 = sext i32 %44 to i64
  %46 = add i64 %45, %43
  %47 = trunc i64 %46 to i32
  store i32 %47, ptr %9, align 4, !tbaa !4
  br label %48

48:                                               ; preds = %28
  %49 = load i64, ptr %8, align 8, !tbaa !8
  %50 = add i64 %49, 1
  store i64 %50, ptr %8, align 8, !tbaa !8
  br label %25, !llvm.loop !52

51:                                               ; preds = %25
  call void @llvm.lifetime.end.p0(i64 8, ptr %10) #7
  br label %52

52:                                               ; preds = %51
  %53 = load i64, ptr %7, align 8, !tbaa !8
  %54 = add i64 %53, 1
  store i64 %54, ptr %7, align 8, !tbaa !8
  br label %12, !llvm.loop !53

55:                                               ; preds = %12
  %56 = load i32, ptr %9, align 4, !tbaa !4
  %57 = icmp ne i32 %56, 0
  br i1 %57, label %58, label %68

58:                                               ; preds = %55
  %59 = load i32, ptr %9, align 4, !tbaa !4
  %60 = sitofp i32 %59 to double
  %61 = load ptr, ptr %6, align 8, !tbaa !46
  %62 = load double, ptr %61, align 8, !tbaa !38
  %63 = fdiv nsz double %62, %60
  store double %63, ptr %61, align 8, !tbaa !38
  %64 = call nsz double @llvm.pow.f64(double 1.000000e+01, double -1.000000e+00)
  %65 = load ptr, ptr %6, align 8, !tbaa !46
  %66 = load double, ptr %65, align 8, !tbaa !38
  %67 = fmul nsz double %66, %64
  store double %67, ptr %65, align 8, !tbaa !38
  br label %68

68:                                               ; preds = %58, %55
  %69 = load i32, ptr %9, align 4, !tbaa !4
  call void @llvm.lifetime.end.p0(i64 4, ptr %9) #7
  call void @llvm.lifetime.end.p0(i64 8, ptr %8) #7
  call void @llvm.lifetime.end.p0(i64 8, ptr %7) #7
  ret i32 %69
}

; Function Attrs: nounwind uwtable
define i32 @ff_ebur128_relative_threshold(ptr noundef %0, ptr noundef %1) #0 {
  %3 = alloca i32, align 4
  %4 = alloca ptr, align 8
  %5 = alloca ptr, align 8
  %6 = alloca double, align 8
  %7 = alloca i32, align 4
  store ptr %0, ptr %4, align 8, !tbaa !10
  store ptr %1, ptr %5, align 8, !tbaa !46
  call void @llvm.lifetime.start.p0(i64 8, ptr %6) #7
  %8 = load ptr, ptr %4, align 8, !tbaa !10
  %9 = getelementptr inbounds nuw %struct.FFEBUR128State, ptr %8, i32 0, i32 0
  %10 = load i32, ptr %9, align 8, !tbaa !25
  %11 = and i32 %10, 5
  %12 = icmp ne i32 %11, 5
  br i1 %12, label %13, label %14

13:                                               ; preds = %2
  store i32 -22, ptr %3, align 4
  store i32 1, ptr %7, align 4
  br label %23

14:                                               ; preds = %2
  %15 = call i32 @ebur128_calc_relative_threshold(ptr noundef %4, i64 noundef 1, ptr noundef %6)
  %16 = icmp ne i32 %15, 0
  br i1 %16, label %19, label %17

17:                                               ; preds = %14
  %18 = load ptr, ptr %5, align 8, !tbaa !46
  store double -7.000000e+01, ptr %18, align 8, !tbaa !38
  store i32 0, ptr %3, align 4
  store i32 1, ptr %7, align 4
  br label %23

19:                                               ; preds = %14
  %20 = load double, ptr %6, align 8, !tbaa !38
  %21 = call nsz double @ebur128_energy_to_loudness(double noundef %20)
  %22 = load ptr, ptr %5, align 8, !tbaa !46
  store double %21, ptr %22, align 8, !tbaa !38
  store i32 0, ptr %3, align 4
  store i32 1, ptr %7, align 4
  br label %23

23:                                               ; preds = %19, %17, %13
  call void @llvm.lifetime.end.p0(i64 8, ptr %6) #7
  %24 = load i32, ptr %3, align 4
  ret i32 %24
}