; Function Attrs: nofree norecurse nosync nounwind memory(read, argmem: readwrite, inaccessiblemem: none) uwtable
define range(i32 -22, 1) i32 @ff_ebur128_relative_threshold(ptr noundef readonly captures(none) %0, ptr noundef writeonly captures(none) %1) local_unnamed_addr #6 {
  %3 = load i32, ptr %0, align 8, !tbaa !25
  %4 = and i32 %3, 5
  %.not = icmp eq i32 %4, 5
  br i1 %.not, label %5, label %27

5:                                                ; preds = %2
  %6 = getelementptr inbounds nuw i8, ptr %0, i64 16
  %7 = load ptr, ptr %6, align 8, !tbaa !4
  %8 = getelementptr inbounds nuw i8, ptr %7, i64 328
  %9 = load ptr, ptr %8, align 8, !tbaa !31
  br label %10

10:                                               ; preds = %10, %5
  %.122.i = phi i32 [ 0, %5 ], [ %19, %10 ]
  %.02021.i = phi i64 [ 0, %5 ], [ %20, %10 ]
  %11 = phi double [ 0.000000e+00, %5 ], [ %17, %10 ]
  %12 = getelementptr inbounds nuw i64, ptr %9, i64 %.02021.i
  %13 = load i64, ptr %12, align 8, !tbaa !48
  %14 = uitofp i64 %13 to double
  %15 = getelementptr inbounds nuw [1000 x double], ptr @histogram_energies, i64 0, i64 %.02021.i
  %16 = load double, ptr %15, align 8, !tbaa !29
  %17 = tail call nsz double @llvm.fmuladd.f64(double %14, double %16, double %11)
  %18 = trunc i64 %13 to i32
  %19 = add i32 %.122.i, %18
  %20 = add nuw nsw i64 %.02021.i, 1
  %exitcond.not.i = icmp eq i64 %20, 1000
  br i1 %exitcond.not.i, label %ebur128_calc_relative_threshold.exit, label %10, !llvm.loop !50

ebur128_calc_relative_threshold.exit:             ; preds = %10
  %.not.i = icmp eq i32 %19, 0
  br i1 %.not.i, label %.sink.split, label %21

21:                                               ; preds = %ebur128_calc_relative_threshold.exit
  %22 = sitofp i32 %19 to double
  %23 = fdiv nsz double %17, %22
  %24 = fmul nsz double %23, 1.000000e-01
  %25 = tail call nsz double @llvm.log10.f64(double %24)
  %26 = tail call nsz noundef double @llvm.fmuladd.f64(double %25, double 1.000000e+01, double -6.910000e-01)
  br label %.sink.split

.sink.split:                                      ; preds = %ebur128_calc_relative_threshold.exit, %21
  %.sink = phi double [ %26, %21 ], [ -7.000000e+01, %ebur128_calc_relative_threshold.exit ]
  store double %.sink, ptr %1, align 8, !tbaa !29
  br label %27

27:                                               ; preds = %.sink.split, %2
  %.0 = phi i32 [ -22, %2 ], [ 0, %.sink.split ]
  ret i32 %.0
}